; Function Attrs: mustprogress uwtable
define noundef zeroext i1 @_ZNK10open_spiel10algorithms13CFRSolverBase27AllPlayersHaveZeroReachProbERKSt6vectorIdSaIdEE(ptr nocapture noundef nonnull readonly align 8 dereferenceable(5128) %0, ptr nocapture noundef nonnull readonly align 8 dereferenceable(24) %1) local_unnamed_addr #4 align 2 {
  %3 = getelementptr inbounds nuw i8, ptr %0, i64 8
  %4 = load ptr, ptr %3, align 8
  %5 = load ptr, ptr %4, align 8
  %6 = getelementptr inbounds i8, ptr %5, i64 56
  %7 = load ptr, ptr %6, align 8
  %8 = tail call noundef i32 %7(ptr noundef nonnull align 8 dereferenceable(280) %4)
  %9 = icmp slt i32 %8, 1
  br i1 %9, label %._crit_edge, label %.lr.ph

10:                                               ; preds = %.lr.ph
  %indvars.iv.next = add nuw nsw i64 %indvars.iv, 1
  %11 = load ptr, ptr %3, align 8
  %12 = load ptr, ptr %11, align 8
  %13 = getelementptr inbounds i8, ptr %12, i64 56
  %14 = load ptr, ptr %13, align 8
  %15 = tail call noundef i32 %14(ptr noundef nonnull align 8 dereferenceable(280) %11)
  %16 = sext i32 %15 to i64
  %.not = icmp slt i64 %indvars.iv.next, %16
  br i1 %.not, label %.lr.ph, label %._crit_edge, !llvm.loop !50

.lr.ph:                                           ; preds = %2, %10
  %indvars.iv = phi i64 [ %indvars.iv.next, %10 ], [ 0, %2 ]
  %17 = load ptr, ptr %1, align 8
  %18 = getelementptr inbounds double, ptr %17, i64 %indvars.iv
  %19 = load double, ptr %18, align 8
  %20 = fcmp oeq double %19, 0.000000e+00
  br i1 %20, label %10, label %._crit_edge

._crit_edge:                                      ; preds = %.lr.ph, %10, %2
  %.lcssa = phi i1 [ true, %2 ], [ %20, %10 ], [ %20, %.lr.ph ]
  ret i1 %.lcssa
}